; Function Attrs: nofree nounwind uwtable
define void @Cmd_HistoryPrint(ptr noundef readonly captures(none) %0, i32 noundef %1) local_unnamed_addr #9 {
  %3 = getelementptr inbounds nuw i8, ptr %0, i64 40
  %4 = load ptr, ptr %3, align 8, !tbaa !24
  %5 = getelementptr i8, ptr %4, i64 4
  %.val10 = load i32, ptr %5, align 4, !tbaa !25
  %6 = sub nsw i32 %.val10, %1
  %7 = tail call noundef range(i32 0, -2147483648) i32 @llvm.smax.i32(i32 %6, i32 0)
  %puts = tail call i32 @puts(ptr nonnull dereferenceable(1) @str)
  %8 = load ptr, ptr %3, align 8, !tbaa !24
  %9 = getelementptr i8, ptr %8, i64 4
  %.val12 = load i32, ptr %9, align 4, !tbaa !25
  %10 = icmp slt i32 %7, %.val12
  br i1 %10, label %.lr.ph.preheader, label %.critedge

.lr.ph.preheader:                                 ; preds = %2
  %11 = zext nneg i32 %7 to i64
  br label %.lr.ph

.lr.ph:                                           ; preds = %.lr.ph.preheader, %.lr.ph
  %indvars.iv = phi i64 [ %11, %.lr.ph.preheader ], [ %indvars.iv.next, %.lr.ph ]
  %12 = phi ptr [ %8, %.lr.ph.preheader ], [ %16, %.lr.ph ]
  %13 = getelementptr i8, ptr %12, i64 8
  %.val11 = load ptr, ptr %13, align 8, !tbaa !27
  %14 = getelementptr inbounds nuw ptr, ptr %.val11, i64 %indvars.iv
  %15 = load ptr, ptr %14, align 8, !tbaa !28
  %puts9 = tail call i32 @puts(ptr nonnull dereferenceable(1) %15)
  %indvars.iv.next = add nuw nsw i64 %indvars.iv, 1
  %16 = load ptr, ptr %3, align 8, !tbaa !24
  %17 = getelementptr i8, ptr %16, i64 4
  %.val = load i32, ptr %17, align 4, !tbaa !25
  %18 = trunc nuw i64 %indvars.iv.next to i32
  %19 = icmp sgt i32 %.val, %18
  br i1 %19, label %.lr.ph, label %.critedge, !llvm.loop !41

.critedge:                                        ; preds = %.lr.ph, %2
  %puts8 = tail call i32 @puts(ptr nonnull dereferenceable(1) @str.1)
  ret void
}